target datalayout = "e-m:e-p270:32:32-p271:32:32-p272:64:64-i64:64-i128:128-f80:128-n8:16:32:64-S128"
target triple = "x86_64-pc-linux-gnu"

%struct.grpc_resolved_address = type { [128 x i8], i32 }

; Function Attrs: mustprogress nounwind uwtable
define noundef zeroext i1 @_ZNK9grpc_core23ResolvedAddressLessThanclERK21grpc_resolved_addressS3_(ptr noundef nonnull align 1 dereferenceable(1) %0, ptr noundef nonnull align 4 dereferenceable(132) %1, ptr noundef nonnull align 4 dereferenceable(132) %2) #6 align 2 {
  %4 = alloca i1, align 1
  %5 = alloca ptr, align 8
  %6 = alloca ptr, align 8
  %7 = alloca ptr, align 8
  store ptr %0, ptr %5, align 8, !tbaa !74
  store ptr %1, ptr %6, align 8, !tbaa !8
  store ptr %2, ptr %7, align 8, !tbaa !8
  %8 = load ptr, ptr %6, align 8, !tbaa !8
  %9 = getelementptr inbounds nuw %struct.grpc_resolved_address, ptr %8, i32 0, i32 1
  %10 = load i32, ptr %9, align 4, !tbaa !37
  %11 = load ptr, ptr %7, align 8, !tbaa !8
  %12 = getelementptr inbounds nuw %struct.grpc_resolved_address, ptr %11, i32 0, i32 1
  %13 = load i32, ptr %12, align 4, !tbaa !37
  %14 = icmp ult i32 %10, %13
  br i1 %14, label %15, label %16

15:                                               ; preds = %3
  store i1 true, ptr %4, align 1
  br label %29

16:                                               ; preds = %3
  %17 = load ptr, ptr %6, align 8, !tbaa !8
  %18 = getelementptr inbounds nuw %struct.grpc_resolved_address, ptr %17, i32 0, i32 0
  %19 = getelementptr inbounds [128 x i8], ptr %18, i64 0, i64 0
  %20 = load ptr, ptr %7, align 8, !tbaa !8
  %21 = getelementptr inbounds nuw %struct.grpc_resolved_address, ptr %20, i32 0, i32 0
  %22 = getelementptr inbounds [128 x i8], ptr %21, i64 0, i64 0
  %23 = load ptr, ptr %6, align 8, !tbaa !8
  %24 = getelementptr inbounds nuw %struct.grpc_resolved_address, ptr %23, i32 0, i32 1
  %25 = load i32, ptr %24, align 4, !tbaa !37
  %26 = zext i32 %25 to i64
  %27 = call i32 @memcmp(ptr noundef %19, ptr noundef %22, i64 noundef %26) #21
  %28 = icmp slt i32 %27, 0
  store i1 %28, ptr %4, align 1
  br label %29

29:                                               ; preds = %16, %15
  %30 = load i1, ptr %4, align 1
  ret i1 %30
}