; Function Attrs: mustprogress nofree nounwind willreturn memory(argmem: read) uwtable
define noundef zeroext i1 @_ZNK9grpc_core23ResolvedAddressLessThanclERK21grpc_resolved_addressS3_(ptr noundef nonnull readnone align 1 captures(none) dereferenceable(1) %0, ptr noundef nonnull readonly align 4 captures(none) dereferenceable(132) %1, ptr noundef nonnull readonly align 4 captures(none) dereferenceable(132) %2) local_unnamed_addr #9 align 2 {
  %4 = getelementptr inbounds nuw i8, ptr %1, i64 128
  %5 = load i32, ptr %4, align 4, !tbaa !19
  %6 = getelementptr inbounds nuw i8, ptr %2, i64 128
  %7 = load i32, ptr %6, align 4, !tbaa !19
  %8 = icmp ult i32 %5, %7
  br i1 %8, label %13, label %9

9:                                                ; preds = %3
  %10 = zext i32 %5 to i64
  %11 = tail call i32 @memcmp(ptr noundef nonnull %1, ptr noundef nonnull %2, i64 noundef %10) #31
  %12 = icmp slt i32 %11, 0
  br label %13

13:                                               ; preds = %3, %9
  %.0 = phi i1 [ %12, %9 ], [ true, %3 ]
  ret i1 %.0
}